target datalayout = "e-m:e-p270:32:32-p271:32:32-p272:64:64-i64:64-i128:128-f80:128-n8:16:32:64-S128"
target triple = "x86_64-pc-linux-gnu"

%struct._zval_struct = type { %union._zend_value, %union.anon.0, %union.anon.3 }
%union._zend_value = type { i64 }
%union.anon.0 = type { i32 }
%union.anon.3 = type { i32 }
%struct._zend_refcounted_h = type { i32, %union.anon }
%union.anon = type { i32 }
%struct._finfo_object = type { ptr, %struct._zend_object }
%struct._zend_object = type { %struct._zend_refcounted_h, i32, i32, ptr, ptr, ptr, [1 x %struct._zval_struct] }
%struct._php_fileinfo = type { i64, ptr }

; Function Attrs: inlinehint nounwind uwtable
define internal ptr @php_finfo_fetch_object(ptr noundef %0) #6 {
  %2 = alloca ptr, align 8
  store ptr %0, ptr %2, align 8, !tbaa !39
  %3 = load ptr, ptr %2, align 8, !tbaa !39
  %4 = getelementptr inbounds i8, ptr %3, i64 -8
  ret ptr %4
}

; Function Attrs: nounwind uwtable
define internal void @finfo_objects_free(ptr noundef %0) #0 {
  %2 = alloca ptr, align 8
  %3 = alloca ptr, align 8
  store ptr %0, ptr %2, align 8, !tbaa !39
  call void @llvm.lifetime.start.p0(i64 8, ptr %3) #11
  %4 = load ptr, ptr %2, align 8, !tbaa !39
  %5 = call ptr @php_finfo_fetch_object(ptr noundef %4)
  store ptr %5, ptr %3, align 8, !tbaa !9
  %6 = load ptr, ptr %3, align 8, !tbaa !9
  %7 = getelementptr inbounds nuw %struct._finfo_object, ptr %6, i32 0, i32 0
  %8 = load ptr, ptr %7, align 8, !tbaa !41
  %9 = icmp ne ptr %8, null
  br i1 %9, label %10, label %19

10:                                               ; preds = %1
  %11 = load ptr, ptr %3, align 8, !tbaa !9
  %12 = getelementptr inbounds nuw %struct._finfo_object, ptr %11, i32 0, i32 0
  %13 = load ptr, ptr %12, align 8, !tbaa !41
  %14 = getelementptr inbounds nuw %struct._php_fileinfo, ptr %13, i32 0, i32 1
  %15 = load ptr, ptr %14, align 8, !tbaa !45
  call void @magic_close(ptr noundef %15)
  %16 = load ptr, ptr %3, align 8, !tbaa !9
  %17 = getelementptr inbounds nuw %struct._finfo_object, ptr %16, i32 0, i32 0
  %18 = load ptr, ptr %17, align 8, !tbaa !41
  call void @_efree(ptr noundef %18)
  br label %19

19:                                               ; preds = %10, %1
  %20 = load ptr, ptr %3, align 8, !tbaa !9
  %21 = getelementptr inbounds nuw %struct._finfo_object, ptr %20, i32 0, i32 1
  call void @zend_object_std_dtor(ptr noundef %21)
  call void @llvm.lifetime.end.p0(i64 8, ptr %3) #11
  ret void
}