; Function Attrs: nounwind uwtable
define internal void @finfo_objects_free(ptr noundef %0) #0 {
  %2 = getelementptr inbounds i8, ptr %0, i64 -8
  %3 = load ptr, ptr %2, align 8, !tbaa !37
  %.not = icmp eq ptr %3, null
  br i1 %.not, label %8, label %4

4:                                                ; preds = %1
  %5 = getelementptr inbounds nuw i8, ptr %3, i64 8
  %6 = load ptr, ptr %5, align 8, !tbaa !41
  tail call void @magic_close(ptr noundef %6) #9
  %7 = load ptr, ptr %2, align 8, !tbaa !37
  tail call void @_efree(ptr noundef %7) #9
  br label %8

8:                                                ; preds = %4, %1
  tail call void @zend_object_std_dtor(ptr noundef nonnull %0) #9
  ret void
}